; ModuleID = '17/1317.c'
source_filename = "17/1317.c"
target datalayout = "e-m:e-p270:32:32-p271:32:32-p272:64:64-i64:64-f80:128-n8:16:32:64-S128"
target triple = "x86_64-pc-linux-gnu"

@.str = private unnamed_addr constant [4 x i8] c"%d\0A\00", align 1
@.str.1 = private unnamed_addr constant [7 x i8] c"%s\0A%s\0A\00", align 1

; Function Attrs: noinline nounwind uwtable
define dso_local i32 @main() #0 {
  %1 = alloca i32, align 4
  %2 = alloca [200 x i8], align 16
  %3 = alloca [200 x i8], align 16
  %4 = alloca i32, align 4
  %5 = alloca i32, align 4
  %6 = alloca i32, align 4
  %7 = alloca [200 x i32], align 16
  store i32 0, i32* %1, align 4
  %8 = call i32 (i8*, ...) @__isoc99_scanf(i8* getelementptr inbounds ([4 x i8], [4 x i8]* @.str, i64 0, i64 0), i32* %4)
  br label %9

9:                                                ; preds = %60, %0
  %10 = getelementptr inbounds [200 x i8], [200 x i8]* %2, i64 0, i64 0
  %11 = call i32 (i8*, ...) bitcast (i32 (...)* @gets to i32 (i8*, ...)*)(i8* %10)
  %12 = icmp ne i32 %11, 0
  br i1 %12, label %13, label %67

13:                                               ; preds = %9
  store i32 0, i32* %6, align 4
  store i32 0, i32* %5, align 4
  br label %14

14:                                               ; preds = %57, %13
  %15 = load i32, i32* %5, align 4
  %16 = sext i32 %15 to i64
  %17 = getelementptr inbounds [200 x i8], [200 x i8]* %2, i64 0, i64 %16
  %18 = load i8, i8* %17, align 1
  %19 = sext i8 %18 to i32
  %20 = icmp ne i32 %19, 0
  br i1 %20, label %21, label %60

21:                                               ; preds = %14
  %22 = load i32, i32* %5, align 4
  %23 = sext i32 %22 to i64
  %24 = getelementptr inbounds [200 x i8], [200 x i8]* %3, i64 0, i64 %23
  store i8 32, i8* %24, align 1
  %25 = load i32, i32* %5, align 4
  %26 = sext i32 %25 to i64
  %27 = getelementptr inbounds [200 x i8], [200 x i8]* %2, i64 0, i64 %26
  %28 = load i8, i8* %27, align 1
  %29 = sext i8 %28 to i32
  switch i32 %29, label %56 [
    i32 40, label %30
    i32 41, label %39
  ]

30:                                               ; preds = %21
  %31 = load i32, i32* %5, align 4
  %32 = load i32, i32* %6, align 4
  %33 = add nsw i32 %32, 1
  store i32 %33, i32* %6, align 4
  %34 = sext i32 %32 to i64
  %35 = getelementptr inbounds [200 x i32], [200 x i32]* %7, i64 0, i64 %34
  store i32 %31, i32* %35, align 4
  %36 = load i32, i32* %5, align 4
  %37 = sext i32 %36 to i64
  %38 = getelementptr inbounds [200 x i8], [200 x i8]* %3, i64 0, i64 %37
  store i8 36, i8* %38, align 1
  br label %56

39:                                               ; preds = %21
  %40 = load i32, i32* %6, align 4
  %41 = icmp sgt i32 %40, 0
  br i1 %41, label %42, label %51

42:                                               ; preds = %39
  %43 = load i32, i32* %6, align 4
  %44 = add nsw i32 %43, -1
  store i32 %44, i32* %6, align 4
  %45 = load i32, i32* %6, align 4
  %46 = sext i32 %45 to i64
  %47 = getelementptr inbounds [200 x i32], [200 x i32]* %7, i64 0, i64 %46
  %48 = load i32, i32* %47, align 4
  %49 = sext i32 %48 to i64
  %50 = getelementptr inbounds [200 x i8], [200 x i8]* %3, i64 0, i64 %49
  store i8 32, i8* %50, align 1
  br label %55

51:                                               ; preds = %39
  %52 = load i32, i32* %5, align 4
  %53 = sext i32 %52 to i64
  %54 = getelementptr inbounds [200 x i8], [200 x i8]* %3, i64 0, i64 %53
  store i8 63, i8* %54, align 1
  br label %55

55:                                               ; preds = %51, %42
  br label %56

56:                                               ; preds = %21, %55, %30
  br label %57

57:                                               ; preds = %56
  %58 = load i32, i32* %5, align 4
  %59 = add nsw i32 %58, 1
  store i32 %59, i32* %5, align 4
  br label %14

60:                                               ; preds = %14
  %61 = load i32, i32* %5, align 4
  %62 = sext i32 %61 to i64
  %63 = getelementptr inbounds [200 x i8], [200 x i8]* %3, i64 0, i64 %62
  store i8 0, i8* %63, align 1
  %64 = getelementptr inbounds [200 x i8], [200 x i8]* %2, i64 0, i64 0
  %65 = getelementptr inbounds [200 x i8], [200 x i8]* %3, i64 0, i64 0
  %66 = call i32 (i8*, ...) @printf(i8* getelementptr inbounds ([7 x i8], [7 x i8]* @.str.1, i64 0, i64 0), i8* %64, i8* %65)
  br label %9

67:                                               ; preds = %9
  %68 = load i32, i32* %1, align 4
  ret i32 %68
}

declare dso_local i32 @__isoc99_scanf(i8*, ...) #1

declare dso_local i32 @gets(...) #1

declare dso_local i32 @printf(i8*, ...) #1


!llvm.module.flags = !{!0}
!llvm.ident = !{!1}

!0 = !{i32 1, !"wchar_size", i32 4}
!1 = !{!"clang version 10.0.0-4ubuntu1 "}
