; ModuleID = 'source-C-CXX/16/1317.c'
source_filename = "source-C-CXX/16/1317.c"
target datalayout = "e-m:e-p270:32:32-p271:32:32-p272:64:64-i64:64-f80:128-n8:16:32:64-S128"
target triple = "x86_64-pc-linux-gnu"

@.str = private unnamed_addr constant [4 x i8] c"%d\0A\00", align 1
@.str.1 = private unnamed_addr constant [7 x i8] c"%s\0A%s\0A\00", align 1

; Function Attrs: nounwind sspstrong uwtable
define dso_local i32 @main() local_unnamed_addr #0 {
  %1 = alloca [200 x i8], align 16
  %2 = alloca [200 x i8], align 16
  %3 = alloca i32, align 4
  %4 = alloca [200 x i32], align 16
  %5 = getelementptr inbounds [200 x i8], [200 x i8]* %1, i64 0, i64 0
  call void @llvm.lifetime.start.p0i8(i64 200, i8* nonnull %5) #4
  %6 = getelementptr inbounds [200 x i8], [200 x i8]* %2, i64 0, i64 0
  call void @llvm.lifetime.start.p0i8(i64 200, i8* nonnull %6) #4
  %7 = bitcast i32* %3 to i8*
  call void @llvm.lifetime.start.p0i8(i64 4, i8* nonnull %7) #4
  %8 = bitcast [200 x i32]* %4 to i8*
  call void @llvm.lifetime.start.p0i8(i64 800, i8* nonnull %8) #4
  %9 = call i32 (i8*, ...) @__isoc99_scanf(i8* getelementptr inbounds ([4 x i8], [4 x i8]* @.str, i64 0, i64 0), i32* nonnull %3)
  %10 = call i32 (i8*, ...) bitcast (i32 (...)* @gets to i32 (i8*, ...)*)(i8* nonnull %5) #4
  %11 = icmp eq i32 %10, 0
  br i1 %11, label %49, label %12

12:                                               ; preds = %0, %42
  %13 = load i8, i8* %5, align 16, !tbaa !5
  %14 = icmp eq i8 %13, 0
  br i1 %14, label %42, label %15

15:                                               ; preds = %12, %36
  %16 = phi i64 [ %38, %36 ], [ 0, %12 ]
  %17 = phi i8 [ %40, %36 ], [ %13, %12 ]
  %18 = phi i32 [ %37, %36 ], [ 0, %12 ]
  %19 = getelementptr inbounds [200 x i8], [200 x i8]* %2, i64 0, i64 %16
  store i8 32, i8* %19, align 1, !tbaa !5
  %20 = sext i8 %17 to i32
  switch i32 %20, label %36 [
    i32 40, label %21
    i32 41, label %26
  ]

21:                                               ; preds = %15
  %22 = add nsw i32 %18, 1
  %23 = sext i32 %18 to i64
  %24 = getelementptr inbounds [200 x i32], [200 x i32]* %4, i64 0, i64 %23
  %25 = trunc i64 %16 to i32
  store i32 %25, i32* %24, align 4, !tbaa !8
  store i8 36, i8* %19, align 1, !tbaa !5
  br label %36

26:                                               ; preds = %15
  %27 = icmp sgt i32 %18, 0
  br i1 %27, label %28, label %35

28:                                               ; preds = %26
  %29 = add nsw i32 %18, -1
  %30 = zext i32 %29 to i64
  %31 = getelementptr inbounds [200 x i32], [200 x i32]* %4, i64 0, i64 %30
  %32 = load i32, i32* %31, align 4, !tbaa !8
  %33 = sext i32 %32 to i64
  %34 = getelementptr inbounds [200 x i8], [200 x i8]* %2, i64 0, i64 %33
  store i8 32, i8* %34, align 1, !tbaa !5
  br label %36

35:                                               ; preds = %26
  store i8 63, i8* %19, align 1, !tbaa !5
  br label %36

36:                                               ; preds = %21, %15, %35, %28
  %37 = phi i32 [ %18, %15 ], [ %29, %28 ], [ %18, %35 ], [ %22, %21 ]
  %38 = add nuw i64 %16, 1
  %39 = getelementptr inbounds [200 x i8], [200 x i8]* %1, i64 0, i64 %38
  %40 = load i8, i8* %39, align 1, !tbaa !5
  %41 = icmp eq i8 %40, 0
  br i1 %41, label %42, label %15, !llvm.loop !10

42:                                               ; preds = %36, %12
  %43 = phi i64 [ 0, %12 ], [ %38, %36 ]
  %44 = and i64 %43, 4294967295
  %45 = getelementptr inbounds [200 x i8], [200 x i8]* %2, i64 0, i64 %44
  store i8 0, i8* %45, align 1, !tbaa !5
  %46 = call i32 (i8*, ...) @printf(i8* nonnull dereferenceable(1) getelementptr inbounds ([7 x i8], [7 x i8]* @.str.1, i64 0, i64 0), i8* nonnull %5, i8* nonnull %6)
  %47 = call i32 (i8*, ...) bitcast (i32 (...)* @gets to i32 (i8*, ...)*)(i8* nonnull %5) #4
  %48 = icmp eq i32 %47, 0
  br i1 %48, label %49, label %12, !llvm.loop !12

49:                                               ; preds = %42, %0
  call void @llvm.lifetime.end.p0i8(i64 800, i8* nonnull %8) #4
  call void @llvm.lifetime.end.p0i8(i64 4, i8* nonnull %7) #4
  call void @llvm.lifetime.end.p0i8(i64 200, i8* nonnull %6) #4
  call void @llvm.lifetime.end.p0i8(i64 200, i8* nonnull %5) #4
  ret i32 0
}

; Function Attrs: argmemonly mustprogress nofree nosync nounwind willreturn
declare void @llvm.lifetime.start.p0i8(i64 immarg, i8* nocapture) #1

; Function Attrs: nofree nounwind
declare noundef i32 @__isoc99_scanf(i8* nocapture noundef readonly, ...) local_unnamed_addr #2

declare i32 @gets(...) local_unnamed_addr #3

; Function Attrs: nofree nounwind
declare noundef i32 @printf(i8* nocapture noundef readonly, ...) local_unnamed_addr #2

; Function Attrs: argmemonly mustprogress nofree nosync nounwind willreturn
declare void @llvm.lifetime.end.p0i8(i64 immarg, i8* nocapture) #1


!llvm.module.flags = !{!0, !1, !2, !3}
!llvm.ident = !{!4}

!0 = !{i32 1, !"wchar_size", i32 4}
!1 = !{i32 7, !"PIC Level", i32 2}
!2 = !{i32 7, !"PIE Level", i32 2}
!3 = !{i32 7, !"uwtable", i32 1}
!4 = !{!"clang version 13.0.0"}
!5 = !{!6, !6, i64 0}
!6 = !{!"omnipotent char", !7, i64 0}
!7 = !{!"Simple C/C++ TBAA"}
!8 = !{!9, !9, i64 0}
!9 = !{!"int", !6, i64 0}
!10 = distinct !{!10, !11}
!11 = !{!"llvm.loop.mustprogress"}
!12 = distinct !{!12, !11}
